; Function Attrs: nounwind uwtable
define dso_local range(i64 1, 0) i64 @log_newpage_buffer(i32 noundef %0, i1 noundef zeroext %1) local_unnamed_addr #0 {
  %3 = alloca %struct.RelFileLocator, align 4
  %4 = alloca i32, align 4
  %5 = alloca i32, align 4
  %6 = icmp slt i32 %0, 0
  br i1 %6, label %7, label %13

7:                                                ; preds = %2
  %8 = load ptr, ptr @LocalBufferBlockPointers, align 8
  %9 = xor i32 %0, -1
  %10 = zext nneg i32 %9 to i64
  %11 = getelementptr inbounds nuw ptr, ptr %8, i64 %10
  %12 = load ptr, ptr %11, align 8
  br label %BufferGetPage.exit

13:                                               ; preds = %2
  %14 = load ptr, ptr @BufferBlocks, align 8
  %15 = add nsw i32 %0, -1
  %16 = sext i32 %15 to i64
  %17 = shl nsw i64 %16, 13
  %18 = getelementptr inbounds nuw i8, ptr %14, i64 %17
  br label %BufferGetPage.exit

BufferGetPage.exit:                               ; preds = %7, %13
  %.0.i.i = phi ptr [ %12, %7 ], [ %18, %13 ]
  call void @llvm.lifetime.start.p0(i64 12, ptr nonnull %3) #10
  call void @llvm.lifetime.start.p0(i64 4, ptr nonnull %4) #10
  call void @llvm.lifetime.start.p0(i64 4, ptr nonnull %5) #10
  call void @BufferGetTag(i32 noundef %0, ptr noundef nonnull %3, ptr noundef nonnull %4, ptr noundef nonnull %5) #10
  %19 = load i32, ptr %4, align 4
  %20 = load i32, ptr %5, align 4
  %21 = call i64 @log_newpage(ptr noundef nonnull %3, i32 noundef %19, i32 noundef %20, ptr noundef %.0.i.i, i1 noundef zeroext %1)
  call void @llvm.lifetime.end.p0(i64 4, ptr nonnull %5) #10
  call void @llvm.lifetime.end.p0(i64 4, ptr nonnull %4) #10
  call void @llvm.lifetime.end.p0(i64 12, ptr nonnull %3) #10
  ret i64 %21
}